; Function Attrs: nounwind uwtable
define hidden i32 @av1_copy_reference_dec(ptr noundef %0, i32 noundef %1, ptr noundef %2) local_unnamed_addr #0 {
  %4 = getelementptr i8, ptr %0, i64 73229
  %.val = load i8, ptr %4, align 1
  %.not.i = icmp eq i8 %.val, 0
  %5 = select i1 %.not.i, i32 3, i32 1
  %or.cond.i = icmp ugt i32 %1, 7
  br i1 %or.cond.i, label %select.unfold, label %6

6:                                                ; preds = %3
  %7 = getelementptr inbounds i8, ptr %0, i64 48928
  %8 = zext nneg i32 %1 to i64
  %9 = getelementptr inbounds [8 x ptr], ptr %7, i64 0, i64 %8
  %10 = load ptr, ptr %9, align 8
  %11 = icmp eq ptr %10, null
  %12 = getelementptr inbounds nuw i8, ptr %10, i64 1312
  br i1 %11, label %select.unfold, label %get_ref_frame.exit

select.unfold:                                    ; preds = %6, %3
  %13 = getelementptr inbounds i8, ptr %0, i64 48008
  tail call void (ptr, i32, ptr, ...) @aom_internal_error(ptr noundef nonnull %13, i32 noundef 1, ptr noundef nonnull @.str.3) #10
  br label %38

get_ref_frame.exit:                               ; preds = %6
  %14 = getelementptr inbounds i8, ptr %10, i64 1320
  %15 = load i32, ptr %14, align 8
  %16 = getelementptr inbounds nuw i8, ptr %2, i64 8
  %17 = load i32, ptr %16, align 8
  %18 = icmp eq i32 %15, %17
  br i1 %18, label %19, label %equal_dimensions.exit.thread

19:                                               ; preds = %get_ref_frame.exit
  %20 = load i32, ptr %12, align 8
  %21 = load i32, ptr %2, align 8
  %22 = icmp eq i32 %20, %21
  br i1 %22, label %23, label %equal_dimensions.exit.thread

23:                                               ; preds = %19
  %24 = getelementptr inbounds i8, ptr %10, i64 1324
  %25 = load i32, ptr %24, align 4
  %26 = getelementptr inbounds i8, ptr %2, i64 12
  %27 = load i32, ptr %26, align 4
  %28 = icmp eq i32 %25, %27
  br i1 %28, label %equal_dimensions.exit, label %equal_dimensions.exit.thread

equal_dimensions.exit:                            ; preds = %23
  %29 = getelementptr inbounds i8, ptr %10, i64 1316
  %30 = load i32, ptr %29, align 4
  %31 = getelementptr inbounds nuw i8, ptr %2, i64 4
  %32 = load i32, ptr %31, align 4
  %.not = icmp eq i32 %30, %32
  br i1 %.not, label %34, label %equal_dimensions.exit.thread

equal_dimensions.exit.thread:                     ; preds = %get_ref_frame.exit, %19, %23, %equal_dimensions.exit
  %33 = getelementptr inbounds i8, ptr %0, i64 48008
  tail call void (ptr, i32, ptr, ...) @aom_internal_error(ptr noundef nonnull %33, i32 noundef 1, ptr noundef nonnull @.str.4) #10
  br label %35

34:                                               ; preds = %equal_dimensions.exit
  tail call void @aom_yv12_copy_frame_c(ptr noundef nonnull %12, ptr noundef nonnull %2, i32 noundef %5) #10
  br label %35

35:                                               ; preds = %34, %equal_dimensions.exit.thread
  %36 = getelementptr inbounds i8, ptr %0, i64 48008
  %37 = load i32, ptr %36, align 8
  br label %38

38:                                               ; preds = %35, %select.unfold
  %.0 = phi i32 [ 1, %select.unfold ], [ %37, %35 ]
  ret i32 %.0
}